; Function Attrs: mustprogress uwtable
define void @_ZN9grpc_core13ClientChannel18TryToConnectLockedEv(ptr noundef nonnull align 8 dereferenceable(632) %0) local_unnamed_addr #13 align 2 {
  %2 = getelementptr inbounds nuw i8, ptr %0, i64 552
  %3 = load i64, ptr %2, align 8, !tbaa !200
  %4 = icmp eq i64 %3, 1
  br i1 %4, label %5, label %16

5:                                                ; preds = %1
  %6 = getelementptr inbounds nuw i8, ptr %0, i64 448
  %7 = load ptr, ptr %6, align 8, !tbaa !281
  %.not = icmp eq ptr %7, null
  br i1 %.not, label %12, label %8

8:                                                ; preds = %5
  %9 = load ptr, ptr %7, align 8, !tbaa !8
  %10 = getelementptr inbounds nuw i8, ptr %9, i64 40
  %11 = load ptr, ptr %10, align 8
  tail call void %11(ptr noundef nonnull align 8 dereferenceable(56) %7)
  br label %16

12:                                               ; preds = %5
  %13 = getelementptr inbounds nuw i8, ptr %0, i64 408
  %14 = load ptr, ptr %13, align 8, !tbaa !282
  %.not.i = icmp eq ptr %14, null
  br i1 %.not.i, label %15, label %16

15:                                               ; preds = %12
  tail call void @_ZN9grpc_core13ClientChannel20CreateResolverLockedEv(ptr noundef nonnull align 8 dereferenceable(632) %0)
  br label %16

16:                                               ; preds = %8, %15, %12, %1
  ret void
}